; Function Attrs: mustprogress nounwind uwtable
define hidden noundef i32 @_ZN8WhiteBox16offset_for_fieldEPKcP7oopDescP6Symbol(ptr noundef %0, ptr nocapture noundef readonly %1, ptr noundef %2) local_unnamed_addr #0 align 2 {
  %4 = alloca %class.fieldDescriptor, align 8
  %5 = load i8, ptr @UseCompressedClassPointers, align 1
  %6 = trunc i8 %5 to i1
  %7 = getelementptr inbounds i8, ptr %1, i64 8
  br i1 %6, label %8, label %18

8:                                                ; preds = %3
  %9 = load i32, ptr %7, align 8
  %10 = load ptr, ptr @_ZN23CompressedKlassPointers5_baseE, align 8
  %11 = load i32, ptr @_ZN23CompressedKlassPointers6_shiftE, align 4
  %12 = ptrtoint ptr %10 to i64
  %13 = zext i32 %9 to i64
  %14 = zext nneg i32 %11 to i64
  %15 = shl i64 %13, %14
  %16 = add i64 %15, %12
  %17 = inttoptr i64 %16 to ptr
  br label %_ZNK7oopDesc5klassEv.exit

18:                                               ; preds = %3
  %19 = load ptr, ptr %7, align 8
  br label %_ZNK7oopDesc5klassEv.exit

_ZNK7oopDesc5klassEv.exit:                        ; preds = %8, %18
  %.0.i = phi ptr [ %17, %8 ], [ %19, %18 ]
  %20 = tail call i64 @strlen(ptr noundef nonnull dereferenceable(1) %0) #17
  %21 = trunc i64 %20 to i32
  %22 = tail call noundef ptr @_ZN11SymbolTable10new_symbolEPKci(ptr noundef %0, i32 noundef %21) #15
  %.not.i = icmp eq ptr %22, null
  br i1 %.not.i, label %_ZN16SymbolHandleBaseILb1EEC2EP6Symbol.exit, label %23

23:                                               ; preds = %_ZNK7oopDesc5klassEv.exit
  %24 = load volatile i32, ptr %22, align 4
  %25 = and i32 %24, 65535
  %26 = icmp eq i32 %25, 1
  br i1 %26, label %27, label %_ZN16SymbolHandleBaseILb1EEC2EP6Symbol.exit

27:                                               ; preds = %23
  tail call void @_ZN24TempSymbolCleanupDelayer13delay_cleanupEP6Symbol(ptr noundef nonnull %22) #15
  br label %_ZN16SymbolHandleBaseILb1EEC2EP6Symbol.exit

_ZN16SymbolHandleBaseILb1EEC2EP6Symbol.exit:      ; preds = %_ZNK7oopDesc5klassEv.exit, %23, %27
  %28 = getelementptr inbounds i8, ptr %4, i64 4
  call void @llvm.memset.p0.i64(ptr noundef nonnull align 4 dereferenceable(22) %28, i8 0, i64 22, i1 false)
  %29 = getelementptr inbounds i8, ptr %4, i64 32
  call void @llvm.memset.p0.i64(ptr noundef nonnull align 8 dereferenceable(16) %29, i8 0, i64 16, i1 false)
  %30 = load ptr, ptr %.0.i, align 8
  %31 = getelementptr inbounds i8, ptr %30, i64 184
  %32 = load ptr, ptr %31, align 8
  %33 = call noundef ptr %32(ptr noundef nonnull align 8 dereferenceable(464) %.0.i, ptr noundef %22, ptr noundef %2, ptr noundef nonnull %4) #15
  %34 = icmp eq ptr %33, null
  br i1 %34, label %35, label %39

35:                                               ; preds = %_ZN16SymbolHandleBaseILb1EEC2EP6Symbol.exit
  %36 = load ptr, ptr @tty, align 8
  %37 = call noundef ptr @_ZNK5Klass13external_nameEv(ptr noundef nonnull align 8 dereferenceable(196) %.0.i) #15
  %38 = call noundef ptr @_ZNK6Symbol11as_C_stringEv(ptr noundef nonnull align 4 dereferenceable(8) %22) #15
  call void (ptr, ptr, ...) @_ZN12outputStream8print_crEPKcz(ptr noundef nonnull align 8 dereferenceable(56) %36, ptr noundef nonnull @.str.47, ptr noundef %37, ptr noundef %38) #15
  call void @_Z29vm_exit_during_initializationPKcS0_(ptr noundef nonnull @.str.48, ptr noundef null) #15
  br label %39

39:                                               ; preds = %35, %_ZN16SymbolHandleBaseILb1EEC2EP6Symbol.exit
  %.sroa.1.0..sroa_idx.i = getelementptr inbounds i8, ptr %4, i64 8
  %.sroa.1.0.copyload.i = load i32, ptr %.sroa.1.0..sroa_idx.i, align 8
  call void @_ZN18constantPoolHandleD1Ev(ptr noundef nonnull align 8 dereferenceable(16) %29) #15
  br i1 %.not.i, label %_ZN16SymbolHandleBaseILb1EED2Ev.exit, label %40

40:                                               ; preds = %39
  call void @_ZN6Symbol18decrement_refcountEv(ptr noundef nonnull align 4 dereferenceable(8) %22) #15
  br label %_ZN16SymbolHandleBaseILb1EED2Ev.exit

_ZN16SymbolHandleBaseILb1EED2Ev.exit:             ; preds = %39, %40
  ret i32 %.sroa.1.0.copyload.i
}